target datalayout = "e-m:e-p270:32:32-p271:32:32-p272:64:64-i64:64-i128:128-f80:128-n8:16:32:64-S128"
target triple = "x86_64-pc-linux-gnu"

@_ZN15MarchingSquares8edgeMaskE = constant [16 x i32] [i32 0, i32 9, i32 3, i32 10, i32 12, i32 5, i32 15, i32 6, i32 6, i32 15, i32 5, i32 12, i32 10, i32 3, i32 9, i32 0], align 16

; Function Attrs: mustprogress nounwind uwtable
define noundef i32 @_ZN6Square11CornerIndexEii(i32 noundef %0, i32 noundef %1) #1 align 2 {
  %3 = alloca i32, align 4
  %4 = alloca i32, align 4
  store i32 %0, ptr %3, align 4
  store i32 %1, ptr %4, align 4
  %5 = load i32, ptr %4, align 4
  %6 = shl i32 %5, 1
  %7 = load i32, ptr %3, align 4
  %8 = or i32 %6, %7
  ret i32 %8
}

; Function Attrs: mustprogress nounwind uwtable
define noundef i32 @_ZN15MarchingSquares14AddEdgeIndicesEhPi(i8 noundef zeroext %0, ptr noundef %1) #1 align 2 {
  %3 = alloca i32, align 4
  %4 = alloca i8, align 1
  %5 = alloca ptr, align 8
  %6 = alloca i32, align 4
  %7 = alloca i32, align 4
  %8 = alloca i32, align 4
  store i8 %0, ptr %4, align 1
  store ptr %1, ptr %5, align 8
  store i32 0, ptr %6, align 4
  %9 = load i8, ptr %4, align 1
  %10 = zext i8 %9 to i64
  %11 = getelementptr inbounds [16 x i32], ptr @_ZN15MarchingSquares8edgeMaskE, i64 0, i64 %10
  %12 = load i32, ptr %11, align 4
  %13 = icmp ne i32 %12, 0
  br i1 %13, label %15, label %14

14:                                               ; preds = %2
  store i32 0, ptr %3, align 4
  br label %56

15:                                               ; preds = %2
  store i32 0, ptr %7, align 4
  br label %16

16:                                               ; preds = %51, %15
  %17 = load i8, ptr %4, align 1
  %18 = zext i8 %17 to i64
  %19 = getelementptr inbounds [16 x [5 x i32]], ptr @_ZN15MarchingSquares5edgesE, i64 0, i64 %18
  %20 = load i32, ptr %7, align 4
  %21 = sext i32 %20 to i64
  %22 = getelementptr inbounds [5 x i32], ptr %19, i64 0, i64 %21
  %23 = load i32, ptr %22, align 4
  %24 = icmp ne i32 %23, -1
  br i1 %24, label %25, label %54

25:                                               ; preds = %16
  store i32 0, ptr %8, align 4
  br label %26

26:                                               ; preds = %45, %25
  %27 = load i32, ptr %8, align 4
  %28 = icmp slt i32 %27, 2
  br i1 %28, label %29, label %48

29:                                               ; preds = %26
  %30 = load i8, ptr %4, align 1
  %31 = zext i8 %30 to i64
  %32 = getelementptr inbounds [16 x [5 x i32]], ptr @_ZN15MarchingSquares5edgesE, i64 0, i64 %31
  %33 = load i32, ptr %7, align 4
  %34 = load i32, ptr %8, align 4
  %35 = add nsw i32 %33, %34
  %36 = sext i32 %35 to i64
  %37 = getelementptr inbounds [5 x i32], ptr %32, i64 0, i64 %36
  %38 = load i32, ptr %37, align 4
  %39 = load ptr, ptr %5, align 8
  %40 = load i32, ptr %7, align 4
  %41 = load i32, ptr %8, align 4
  %42 = add nsw i32 %40, %41
  %43 = sext i32 %42 to i64
  %44 = getelementptr inbounds i32, ptr %39, i64 %43
  store i32 %38, ptr %44, align 4
  br label %45

45:                                               ; preds = %29
  %46 = load i32, ptr %8, align 4
  %47 = add nsw i32 %46, 1
  store i32 %47, ptr %8, align 4
  br label %26, !llvm.loop !9

48:                                               ; preds = %26
  %49 = load i32, ptr %6, align 4
  %50 = add nsw i32 %49, 1
  store i32 %50, ptr %6, align 4
  br label %51

51:                                               ; preds = %48
  %52 = load i32, ptr %7, align 4
  %53 = add nsw i32 %52, 2
  store i32 %53, ptr %7, align 4
  br label %16, !llvm.loop !10

54:                                               ; preds = %16
  %55 = load i32, ptr %6, align 4
  store i32 %55, ptr %3, align 4
  br label %56

56:                                               ; preds = %54, %14
  %57 = load i32, ptr %3, align 4
  ret i32 %57
}

; Function Attrs: mustprogress nounwind uwtable
define noundef zeroext i8 @_ZN15MarchingSquares8GetIndexEPKdd(ptr noundef %0, double noundef %1) #1 align 2 {
  %3 = alloca ptr, align 8
  %4 = alloca double, align 8
  %5 = alloca i8, align 1
  store ptr %0, ptr %3, align 8
  store double %1, ptr %4, align 8
  store i8 0, ptr %5, align 1
  %6 = load ptr, ptr %3, align 8
  %7 = call noundef i32 @_ZN6Square11CornerIndexEii(i32 noundef 0, i32 noundef 0)
  %8 = sext i32 %7 to i64
  %9 = getelementptr inbounds double, ptr %6, i64 %8
  %10 = load double, ptr %9, align 8
  %11 = load double, ptr %4, align 8
  %12 = fcmp olt double %10, %11
  br i1 %12, label %13, label %18

13:                                               ; preds = %2
  %14 = load i8, ptr %5, align 1
  %15 = zext i8 %14 to i32
  %16 = or i32 %15, 1
  %17 = trunc i32 %16 to i8
  store i8 %17, ptr %5, align 1
  br label %18

18:                                               ; preds = %13, %2
  %19 = load ptr, ptr %3, align 8
  %20 = call noundef i32 @_ZN6Square11CornerIndexEii(i32 noundef 1, i32 noundef 0)
  %21 = sext i32 %20 to i64
  %22 = getelementptr inbounds double, ptr %19, i64 %21
  %23 = load double, ptr %22, align 8
  %24 = load double, ptr %4, align 8
  %25 = fcmp olt double %23, %24
  br i1 %25, label %26, label %31

26:                                               ; preds = %18
  %27 = load i8, ptr %5, align 1
  %28 = zext i8 %27 to i32
  %29 = or i32 %28, 2
  %30 = trunc i32 %29 to i8
  store i8 %30, ptr %5, align 1
  br label %31

31:                                               ; preds = %26, %18
  %32 = load ptr, ptr %3, align 8
  %33 = call noundef i32 @_ZN6Square11CornerIndexEii(i32 noundef 1, i32 noundef 1)
  %34 = sext i32 %33 to i64
  %35 = getelementptr inbounds double, ptr %32, i64 %34
  %36 = load double, ptr %35, align 8
  %37 = load double, ptr %4, align 8
  %38 = fcmp olt double %36, %37
  br i1 %38, label %39, label %44

39:                                               ; preds = %31
  %40 = load i8, ptr %5, align 1
  %41 = zext i8 %40 to i32
  %42 = or i32 %41, 4
  %43 = trunc i32 %42 to i8
  store i8 %43, ptr %5, align 1
  br label %44

44:                                               ; preds = %39, %31
  %45 = load ptr, ptr %3, align 8
  %46 = call noundef i32 @_ZN6Square11CornerIndexEii(i32 noundef 0, i32 noundef 1)
  %47 = sext i32 %46 to i64
  %48 = getelementptr inbounds double, ptr %45, i64 %47
  %49 = load double, ptr %48, align 8
  %50 = load double, ptr %4, align 8
  %51 = fcmp olt double %49, %50
  br i1 %51, label %52, label %57

52:                                               ; preds = %44
  %53 = load i8, ptr %5, align 1
  %54 = zext i8 %53 to i32
  %55 = or i32 %54, 8
  %56 = trunc i32 %55 to i8
  store i8 %56, ptr %5, align 1
  br label %57

57:                                               ; preds = %52, %44
  %58 = load i8, ptr %5, align 1
  ret i8 %58
}

; Function Attrs: mustprogress nounwind uwtable
define noundef i32 @_ZN15MarchingSquares14AddEdgeIndicesEPKddPi(ptr noundef %0, double noundef %1, ptr noundef %2) #1 align 2 {
  %4 = alloca ptr, align 8
  %5 = alloca double, align 8
  %6 = alloca ptr, align 8
  store ptr %0, ptr %4, align 8
  store double %1, ptr %5, align 8
  store ptr %2, ptr %6, align 8
  %7 = load ptr, ptr %4, align 8
  %8 = load double, ptr %5, align 8
  %9 = call noundef zeroext i8 @_ZN15MarchingSquares8GetIndexEPKdd(ptr noundef %7, double noundef %8)
  %10 = load ptr, ptr %6, align 8
  %11 = call noundef i32 @_ZN15MarchingSquares14AddEdgeIndicesEhPi(i8 noundef zeroext %9, ptr noundef %10)
  ret i32 %11
}