; Function Attrs: mustprogress nofree norecurse nosync nounwind memory(argmem: readwrite) uwtable
define noundef i32 @_ZN15MarchingSquares14AddEdgeIndicesEPKddPi(ptr noundef readonly captures(none) %0, double noundef %1, ptr noundef writeonly captures(none) %2) local_unnamed_addr #7 align 2 {
  %4 = load double, ptr %0, align 8
  %5 = fcmp olt double %4, %1
  %.0.i = zext i1 %5 to i8
  %6 = getelementptr inbounds nuw i8, ptr %0, i64 8
  %7 = load double, ptr %6, align 8
  %8 = fcmp olt double %7, %1
  %9 = or disjoint i8 %.0.i, 2
  %.1.i = select i1 %8, i8 %9, i8 %.0.i
  %10 = getelementptr inbounds nuw i8, ptr %0, i64 24
  %11 = load double, ptr %10, align 8
  %12 = fcmp olt double %11, %1
  %13 = or disjoint i8 %.1.i, 4
  %.2.i = select i1 %12, i8 %13, i8 %.1.i
  %14 = getelementptr inbounds nuw i8, ptr %0, i64 16
  %15 = load double, ptr %14, align 8
  %16 = fcmp olt double %15, %1
  %17 = or disjoint i8 %.2.i, 8
  %.3.i = select i1 %16, i8 %17, i8 %.2.i
  %18 = zext nneg i8 %.3.i to i64
  switch i8 %.3.i, label %.preheader.i.preheader [
    i8 15, label %_ZN15MarchingSquares14AddEdgeIndicesEhPi.exit
    i8 0, label %_ZN15MarchingSquares14AddEdgeIndicesEhPi.exit
  ]

.preheader.i.preheader:                           ; preds = %3
  %.phi.trans.insert = getelementptr inbounds nuw [16 x [5 x i32]], ptr @_ZN15MarchingSquares5edgesE, i64 0, i64 %18, i64 0
  %.pre = load i32, ptr %.phi.trans.insert, align 4
  br label %.preheader.i

.preheader.i:                                     ; preds = %.preheader.i.preheader, %.preheader.i
  %19 = phi i32 [ %27, %.preheader.i ], [ %.pre, %.preheader.i.preheader ]
  %indvars.iv25.i = phi i64 [ %indvars.iv.next26.i, %.preheader.i ], [ 0, %.preheader.i.preheader ]
  %.01521.i = phi i32 [ %25, %.preheader.i ], [ 0, %.preheader.i.preheader ]
  %20 = getelementptr inbounds nuw i32, ptr %2, i64 %indvars.iv25.i
  store i32 %19, ptr %20, align 4
  %21 = or disjoint i64 %indvars.iv25.i, 1
  %22 = getelementptr inbounds nuw [16 x [5 x i32]], ptr @_ZN15MarchingSquares5edgesE, i64 0, i64 %18, i64 %21
  %23 = load i32, ptr %22, align 4
  %24 = getelementptr inbounds nuw i32, ptr %2, i64 %21
  store i32 %23, ptr %24, align 4
  %25 = add nuw nsw i32 %.01521.i, 1
  %indvars.iv.next26.i = add nuw nsw i64 %indvars.iv25.i, 2
  %26 = getelementptr inbounds nuw [16 x [5 x i32]], ptr @_ZN15MarchingSquares5edgesE, i64 0, i64 %18, i64 %indvars.iv.next26.i
  %27 = load i32, ptr %26, align 4
  %.not17.i = icmp eq i32 %27, -1
  br i1 %.not17.i, label %_ZN15MarchingSquares14AddEdgeIndicesEhPi.exit, label %.preheader.i, !llvm.loop !8

_ZN15MarchingSquares14AddEdgeIndicesEhPi.exit:    ; preds = %.preheader.i, %3, %3
  %.016.i = phi i32 [ 0, %3 ], [ 0, %3 ], [ %25, %.preheader.i ]
  ret i32 %.016.i
}